target datalayout = "e-m:e-p270:32:32-p271:32:32-p272:64:64-i64:64-i128:128-f80:128-n8:16:32:64-S128"
target triple = "x86_64-unknown-linux-gnu"

%struct.hdr_histogram = type { i64, i64, i32, i32, i32, i32, i64, i32, i32, i64, i64, i32, double, i32, i64, ptr }
%struct.hdr_iter = type { ptr, i32, i64, i64, i64, i64, i64, i64, i64, i64, i64, %union.anon, ptr }
%union.anon = type { %struct.hdr_iter_linear }
%struct.hdr_iter_linear = type { i64, i64, i64, i64 }
%struct.hdr_iter_percentiles = type { i8, i32, double, double }

; Function Attrs: nounwind uwtable
define dso_local void @hdr_iter_init(ptr noundef %iter, ptr noundef %h) #0 {
entry:
  %iter.addr = alloca ptr, align 8
  %h.addr = alloca ptr, align 8
  store ptr %iter, ptr %iter.addr, align 8
  store ptr %h, ptr %h.addr, align 8
  %0 = load ptr, ptr %h.addr, align 8
  %1 = load ptr, ptr %iter.addr, align 8
  %h1 = getelementptr inbounds %struct.hdr_iter, ptr %1, i32 0, i32 0
  store ptr %0, ptr %h1, align 8
  %2 = load ptr, ptr %iter.addr, align 8
  %counts_index = getelementptr inbounds %struct.hdr_iter, ptr %2, i32 0, i32 1
  store i32 -1, ptr %counts_index, align 8
  %3 = load ptr, ptr %h.addr, align 8
  %total_count = getelementptr inbounds %struct.hdr_histogram, ptr %3, i32 0, i32 14
  %4 = load i64, ptr %total_count, align 8
  %5 = load ptr, ptr %iter.addr, align 8
  %total_count2 = getelementptr inbounds %struct.hdr_iter, ptr %5, i32 0, i32 2
  store i64 %4, ptr %total_count2, align 8
  %6 = load ptr, ptr %iter.addr, align 8
  %count = getelementptr inbounds %struct.hdr_iter, ptr %6, i32 0, i32 3
  store i64 0, ptr %count, align 8
  %7 = load ptr, ptr %iter.addr, align 8
  %cumulative_count = getelementptr inbounds %struct.hdr_iter, ptr %7, i32 0, i32 4
  store i64 0, ptr %cumulative_count, align 8
  %8 = load ptr, ptr %iter.addr, align 8
  %value = getelementptr inbounds %struct.hdr_iter, ptr %8, i32 0, i32 5
  store i64 0, ptr %value, align 8
  %9 = load ptr, ptr %iter.addr, align 8
  %highest_equivalent_value = getelementptr inbounds %struct.hdr_iter, ptr %9, i32 0, i32 6
  store i64 0, ptr %highest_equivalent_value, align 8
  %10 = load ptr, ptr %iter.addr, align 8
  %value_iterated_from = getelementptr inbounds %struct.hdr_iter, ptr %10, i32 0, i32 9
  store i64 0, ptr %value_iterated_from, align 8
  %11 = load ptr, ptr %iter.addr, align 8
  %value_iterated_to = getelementptr inbounds %struct.hdr_iter, ptr %11, i32 0, i32 10
  store i64 0, ptr %value_iterated_to, align 8
  %12 = load ptr, ptr %iter.addr, align 8
  %_next_fp = getelementptr inbounds %struct.hdr_iter, ptr %12, i32 0, i32 12
  store ptr @all_values_iter_next, ptr %_next_fp, align 8
  ret void
}

; Function Attrs: nounwind uwtable
define dso_local void @hdr_iter_percentile_init(ptr noundef %iter, ptr noundef %h, i32 noundef %ticks_per_half_distance) #0 {
entry:
  %iter.addr = alloca ptr, align 8
  %h.addr = alloca ptr, align 8
  %ticks_per_half_distance.addr = alloca i32, align 4
  store ptr %iter, ptr %iter.addr, align 8
  store ptr %h, ptr %h.addr, align 8
  store i32 %ticks_per_half_distance, ptr %ticks_per_half_distance.addr, align 4
  %0 = load ptr, ptr %h.addr, align 8
  %1 = load ptr, ptr %iter.addr, align 8
  %h1 = getelementptr inbounds %struct.hdr_iter, ptr %1, i32 0, i32 0
  store ptr %0, ptr %h1, align 8
  %2 = load ptr, ptr %iter.addr, align 8
  %3 = load ptr, ptr %h.addr, align 8
  call void @hdr_iter_init(ptr noundef %2, ptr noundef %3)
  %4 = load ptr, ptr %iter.addr, align 8
  %specifics = getelementptr inbounds %struct.hdr_iter, ptr %4, i32 0, i32 11
  %seen_last_value = getelementptr inbounds %struct.hdr_iter_percentiles, ptr %specifics, i32 0, i32 0
  store i8 0, ptr %seen_last_value, align 8
  %5 = load i32, ptr %ticks_per_half_distance.addr, align 4
  %6 = load ptr, ptr %iter.addr, align 8
  %specifics2 = getelementptr inbounds %struct.hdr_iter, ptr %6, i32 0, i32 11
  %ticks_per_half_distance3 = getelementptr inbounds %struct.hdr_iter_percentiles, ptr %specifics2, i32 0, i32 1
  store i32 %5, ptr %ticks_per_half_distance3, align 4
  %7 = load ptr, ptr %iter.addr, align 8
  %specifics4 = getelementptr inbounds %struct.hdr_iter, ptr %7, i32 0, i32 11
  %percentile_to_iterate_to = getelementptr inbounds %struct.hdr_iter_percentiles, ptr %specifics4, i32 0, i32 2
  store double 0.000000e+00, ptr %percentile_to_iterate_to, align 8
  %8 = load ptr, ptr %iter.addr, align 8
  %specifics5 = getelementptr inbounds %struct.hdr_iter, ptr %8, i32 0, i32 11
  %percentile = getelementptr inbounds %struct.hdr_iter_percentiles, ptr %specifics5, i32 0, i32 3
  store double 0.000000e+00, ptr %percentile, align 8
  %9 = load ptr, ptr %iter.addr, align 8
  %_next_fp = getelementptr inbounds %struct.hdr_iter, ptr %9, i32 0, i32 12
  store ptr @percentile_iter_next, ptr %_next_fp, align 8
  ret void
}