; Function Attrs: mustprogress nofree norecurse nosync nounwind willreturn memory(argmem: readwrite) uwtable
define dso_local void @hdr_iter_percentile_init(ptr nocapture noundef writeonly %iter, ptr noundef %h, i32 noundef %ticks_per_half_distance) local_unnamed_addr #5 {
entry:
  store ptr %h, ptr %iter, align 8
  %counts_index.i = getelementptr inbounds i8, ptr %iter, i64 8
  store i32 -1, ptr %counts_index.i, align 8
  %total_count.i = getelementptr inbounds i8, ptr %h, i64 88
  %0 = load i64, ptr %total_count.i, align 8
  %total_count2.i = getelementptr inbounds i8, ptr %iter, i64 16
  store i64 %0, ptr %total_count2.i, align 8
  %count.i = getelementptr inbounds i8, ptr %iter, i64 24
  %value_iterated_from.i = getelementptr inbounds i8, ptr %iter, i64 72
  %_next_fp.i = getelementptr inbounds i8, ptr %iter, i64 120
  tail call void @llvm.memset.p0.i64(ptr noundef nonnull align 8 dereferenceable(32) %count.i, i8 0, i64 32, i1 false)
  tail call void @llvm.memset.p0.i64(ptr noundef nonnull align 8 dereferenceable(16) %value_iterated_from.i, i8 0, i64 16, i1 false)
  %specifics = getelementptr inbounds i8, ptr %iter, i64 88
  store i8 0, ptr %specifics, align 8
  %ticks_per_half_distance3 = getelementptr inbounds i8, ptr %iter, i64 92
  store i32 %ticks_per_half_distance, ptr %ticks_per_half_distance3, align 4
  %percentile_to_iterate_to = getelementptr inbounds i8, ptr %iter, i64 96
  tail call void @llvm.memset.p0.i64(ptr noundef nonnull align 8 dereferenceable(16) %percentile_to_iterate_to, i8 0, i64 16, i1 false)
  store ptr @percentile_iter_next, ptr %_next_fp.i, align 8
  ret void
}